; Function Attrs: mustprogress uwtable
define noundef i32 @paramPlatform(ptr readnone captures(none) %0, ptr noundef %1, i32 noundef %2, ptr noundef %3) #1 {
  %5 = load i32, ptr %3, align 4, !tbaa !13
  %6 = icmp sgt i32 %5, 0
  br i1 %6, label %8, label %7

7:                                                ; preds = %4
  %.not22.i = icmp eq ptr %1, null
  br i1 %.not22.i, label %_ZL20stringToStringBufferPciPKcP10UErrorCode.exit, label %.sink.split.i

8:                                                ; preds = %4
  %9 = tail call ptr @u_errorName_77(i32 noundef %5)
  %10 = tail call i64 @strlen(ptr noundef nonnull dereferenceable(1) %9) #29
  %11 = trunc i64 %10 to i32
  %.not21.i = icmp eq ptr %1, null
  br i1 %.not21.i, label %_ZL20stringToStringBufferPciPKcP10UErrorCode.exit, label %.sink.split.i

.sink.split.i:                                    ; preds = %8, %7
  %.sink25.i = phi i32 [ 5, %7 ], [ %11, %8 ]
  %.sink.i = phi ptr [ @.str, %7 ], [ %9, %8 ]
  %12 = tail call i32 @uprv_min_77(i32 noundef %.sink25.i, i32 noundef %2)
  %13 = sext i32 %12 to i64
  %14 = tail call ptr @strncpy(ptr noundef nonnull %1, ptr noundef nonnull %.sink.i, i64 noundef %13) #26
  br label %_ZL20stringToStringBufferPciPKcP10UErrorCode.exit

_ZL20stringToStringBufferPciPKcP10UErrorCode.exit: ; preds = %7, %8, %.sink.split.i
  %.018.i = phi i32 [ 5, %7 ], [ %11, %8 ], [ %.sink25.i, %.sink.split.i ]
  %15 = tail call noundef i32 @u_terminateChars_77(ptr noundef %1, i32 noundef %2, i32 noundef %.018.i, ptr noundef nonnull %3)
  ret i32 %15
}